target datalayout = "e-m:e-p270:32:32-p271:32:32-p272:64:64-i64:64-i128:128-f80:128-n8:16:32:64-S128"
target triple = "x86_64-pc-linux-gnu"

%struct.SDL_AtomicInt = type { i32 }

@SDL_GetNextObjectID.last_id = internal global %struct.SDL_AtomicInt zeroinitializer, align 4

; Function Attrs: nounwind uwtable
define hidden i32 @SDL_GetNextObjectID() #0 {
  %1 = alloca i32, align 4
  call void @llvm.lifetime.start.p0(i64 4, ptr %1) #6
  %2 = call i32 @SDL_AddAtomicInt_REAL(ptr noundef @SDL_GetNextObjectID.last_id, i32 noundef 1)
  %3 = add i32 %2, 1
  store i32 %3, ptr %1, align 4
  %4 = load i32, ptr %1, align 4
  %5 = icmp eq i32 %4, 0
  br i1 %5, label %6, label %9

6:                                                ; preds = %0
  %7 = call i32 @SDL_AddAtomicInt_REAL(ptr noundef @SDL_GetNextObjectID.last_id, i32 noundef 1)
  %8 = add i32 %7, 1
  store i32 %8, ptr %1, align 4
  br label %9

9:                                                ; preds = %6, %0
  %10 = load i32, ptr %1, align 4
  call void @llvm.lifetime.end.p0(i64 4, ptr %1) #6
  ret i32 %10
}