; Function Attrs: nounwind uwtable
define hidden i32 @SDL_GetNextObjectID() local_unnamed_addr #4 {
  %1 = tail call i32 @SDL_AddAtomicInt_REAL(ptr noundef nonnull @SDL_GetNextObjectID.last_id, i32 noundef 1) #10
  %2 = add i32 %1, 1
  %3 = icmp eq i32 %2, 0
  br i1 %3, label %4, label %7

4:                                                ; preds = %0
  %5 = tail call i32 @SDL_AddAtomicInt_REAL(ptr noundef nonnull @SDL_GetNextObjectID.last_id, i32 noundef 1) #10
  %6 = add i32 %5, 1
  br label %7

7:                                                ; preds = %4, %0
  %.0 = phi i32 [ %6, %4 ], [ %2, %0 ]
  ret i32 %.0
}